target datalayout = "e-m:e-p270:32:32-p271:32:32-p272:64:64-i64:64-i128:128-f80:128-n8:16:32:64-S128"
target triple = "x86_64-pc-linux-gnu"

%class.VMStorage = type { i8, i16, i32 }
%class.GrowableArray = type { %class.GrowableArrayWithAllocator, %class.GrowableArrayMetadata }
%class.GrowableArrayWithAllocator = type { %class.GrowableArrayView }
%class.GrowableArrayView = type { %class.GrowableArrayBase, ptr }
%class.GrowableArrayBase = type { i32, i32 }
%class.GrowableArrayMetadata = type { i64 }
%class.RegSpiller = type <{ %class.GrowableArray, i32, [4 x i8] }>

; Function Attrs: mustprogress nounwind uwtable
define linkonce_odr hidden noundef nonnull align 4 dereferenceable(8) ptr @_ZNK17GrowableArrayViewI9VMStorageE2atEi(ptr noundef nonnull align 8 dereferenceable(16) %0, i32 noundef %1) #1 comdat align 2 {
  %3 = alloca ptr, align 8
  %4 = alloca i32, align 4
  store ptr %0, ptr %3, align 8
  store i32 %1, ptr %4, align 4
  %5 = load ptr, ptr %3, align 8
  %6 = getelementptr inbounds %class.GrowableArrayView, ptr %5, i32 0, i32 1
  %7 = load ptr, ptr %6, align 8
  %8 = load i32, ptr %4, align 4
  %9 = sext i32 %8 to i64
  %10 = getelementptr inbounds %class.VMStorage, ptr %7, i64 %9
  ret ptr %10
}

; Function Attrs: mustprogress nounwind uwtable
define linkonce_odr hidden noundef i32 @_ZNK17GrowableArrayBase6lengthEv(ptr noundef nonnull align 4 dereferenceable(8) %0) #1 comdat align 2 {
  %2 = alloca ptr, align 8
  store ptr %0, ptr %2, align 8
  %3 = load ptr, ptr %2, align 8
  %4 = getelementptr inbounds %class.GrowableArrayBase, ptr %3, i32 0, i32 0
  %5 = load i32, ptr %4, align 4
  ret i32 %5
}

; Function Attrs: mustprogress nounwind uwtable
define hidden void @_ZNK10RegSpiller8generateEP14MacroAssemblerib(ptr noundef nonnull align 8 dereferenceable(28) %0, ptr noundef %1, i32 noundef %2, i1 noundef zeroext %3) #1 align 2 {
  %5 = alloca ptr, align 8
  %6 = alloca ptr, align 8
  %7 = alloca i32, align 4
  %8 = alloca i8, align 1
  %9 = alloca i32, align 4
  %10 = alloca i32, align 4
  %11 = alloca %class.VMStorage, align 4
  %12 = alloca %class.VMStorage, align 4
  %13 = alloca %class.VMStorage, align 4
  %14 = alloca %class.VMStorage, align 4
  store ptr %0, ptr %5, align 8
  store ptr %1, ptr %6, align 8
  store i32 %2, ptr %7, align 4
  %15 = zext i1 %3 to i8
  store i8 %15, ptr %8, align 1
  %16 = load ptr, ptr %5, align 8
  %17 = load i32, ptr %7, align 4
  store i32 %17, ptr %9, align 4
  store i32 0, ptr %10, align 4
  br label %18

18:                                               ; preds = %42, %4
  %19 = load i32, ptr %10, align 4
  %20 = getelementptr inbounds %class.RegSpiller, ptr %16, i32 0, i32 0
  %21 = call noundef i32 @_ZNK17GrowableArrayBase6lengthEv(ptr noundef nonnull align 4 dereferenceable(8) %20)
  %22 = icmp slt i32 %19, %21
  br i1 %22, label %23, label %45

23:                                               ; preds = %18
  %24 = getelementptr inbounds %class.RegSpiller, ptr %16, i32 0, i32 0
  %25 = load i32, ptr %10, align 4
  %26 = call noundef nonnull align 4 dereferenceable(8) ptr @_ZNK17GrowableArrayViewI9VMStorageE2atEi(ptr noundef nonnull align 8 dereferenceable(16) %24, i32 noundef %25)
  call void @llvm.memcpy.p0.p0.i64(ptr align 4 %11, ptr align 4 %26, i64 8, i1 false)
  %27 = load i8, ptr %8, align 1
  %28 = trunc i8 %27 to i1
  br i1 %28, label %29, label %33

29:                                               ; preds = %23
  %30 = load ptr, ptr %6, align 8
  %31 = load i32, ptr %9, align 4
  call void @llvm.memcpy.p0.p0.i64(ptr align 4 %12, ptr align 4 %11, i64 8, i1 false)
  %32 = load i64, ptr %12, align 4
  call void @_ZN10RegSpiller12pd_store_regEP14MacroAssembleri9VMStorage(ptr noundef %30, i32 noundef %31, i64 %32)
  br label %37

33:                                               ; preds = %23
  %34 = load ptr, ptr %6, align 8
  %35 = load i32, ptr %9, align 4
  call void @llvm.memcpy.p0.p0.i64(ptr align 4 %13, ptr align 4 %11, i64 8, i1 false)
  %36 = load i64, ptr %13, align 4
  call void @_ZN10RegSpiller11pd_load_regEP14MacroAssembleri9VMStorage(ptr noundef %34, i32 noundef %35, i64 %36)
  br label %37

37:                                               ; preds = %33, %29
  call void @llvm.memcpy.p0.p0.i64(ptr align 4 %14, ptr align 4 %11, i64 8, i1 false)
  %38 = load i64, ptr %14, align 4
  %39 = call noundef i32 @_ZN10RegSpiller11pd_reg_sizeE9VMStorage(i64 %38)
  %40 = load i32, ptr %9, align 4
  %41 = add nsw i32 %40, %39
  store i32 %41, ptr %9, align 4
  br label %42

42:                                               ; preds = %37
  %43 = load i32, ptr %10, align 4
  %44 = add nsw i32 %43, 1
  store i32 %44, ptr %10, align 4
  br label %18, !llvm.loop !11

45:                                               ; preds = %18
  ret void
}