; Function Attrs: mustprogress nounwind uwtable
define hidden void @_ZNK10RegSpiller8generateEP14MacroAssemblerib(ptr nocapture noundef nonnull readonly align 8 dereferenceable(28) %0, ptr noundef %1, i32 noundef %2, i1 noundef zeroext %3) local_unnamed_addr #4 align 2 {
  %5 = load i32, ptr %0, align 8
  %6 = icmp sgt i32 %5, 0
  br i1 %6, label %.lr.ph, label %._crit_edge

.lr.ph:                                           ; preds = %4
  %7 = getelementptr inbounds i8, ptr %0, i64 8
  br i1 %3, label %.lr.ph.split.us, label %.lr.ph.split

.lr.ph.split.us:                                  ; preds = %.lr.ph, %.lr.ph.split.us
  %indvars.iv20 = phi i64 [ %indvars.iv.next21, %.lr.ph.split.us ], [ 0, %.lr.ph ]
  %.017.us = phi i32 [ %11, %.lr.ph.split.us ], [ %2, %.lr.ph ]
  %8 = load ptr, ptr %7, align 8
  %9 = getelementptr inbounds %class.VMStorage, ptr %8, i64 %indvars.iv20
  %.sroa.03.0.copyload.us = load i64, ptr %9, align 4
  tail call void @_ZN10RegSpiller12pd_store_regEP14MacroAssembleri9VMStorage(ptr noundef %1, i32 noundef %.017.us, i64 %.sroa.03.0.copyload.us) #12
  %10 = tail call noundef i32 @_ZN10RegSpiller11pd_reg_sizeE9VMStorage(i64 %.sroa.03.0.copyload.us) #12
  %11 = add nsw i32 %10, %.017.us
  %indvars.iv.next21 = add nuw nsw i64 %indvars.iv20, 1
  %12 = load i32, ptr %0, align 8
  %13 = sext i32 %12 to i64
  %14 = icmp slt i64 %indvars.iv.next21, %13
  br i1 %14, label %.lr.ph.split.us, label %._crit_edge, !llvm.loop !12

.lr.ph.split:                                     ; preds = %.lr.ph, %.lr.ph.split
  %indvars.iv = phi i64 [ %indvars.iv.next, %.lr.ph.split ], [ 0, %.lr.ph ]
  %.017 = phi i32 [ %18, %.lr.ph.split ], [ %2, %.lr.ph ]
  %15 = load ptr, ptr %7, align 8
  %16 = getelementptr inbounds %class.VMStorage, ptr %15, i64 %indvars.iv
  %.sroa.03.0.copyload = load i64, ptr %16, align 4
  tail call void @_ZN10RegSpiller11pd_load_regEP14MacroAssembleri9VMStorage(ptr noundef %1, i32 noundef %.017, i64 %.sroa.03.0.copyload) #12
  %17 = tail call noundef i32 @_ZN10RegSpiller11pd_reg_sizeE9VMStorage(i64 %.sroa.03.0.copyload) #12
  %18 = add nsw i32 %17, %.017
  %indvars.iv.next = add nuw nsw i64 %indvars.iv, 1
  %19 = load i32, ptr %0, align 8
  %20 = sext i32 %19 to i64
  %21 = icmp slt i64 %indvars.iv.next, %20
  br i1 %21, label %.lr.ph.split, label %._crit_edge, !llvm.loop !12

._crit_edge:                                      ; preds = %.lr.ph.split, %.lr.ph.split.us, %4
  ret void
}